target datalayout = "e-m:e-p270:32:32-p271:32:32-p272:64:64-i64:64-i128:128-f80:128-n8:16:32:64-S128"
target triple = "x86_64-pc-linux-gnu"

; Function Attrs: mustprogress nounwind uwtable
define void @_ZN6LibRaw13hat_transformEPfS0_iii(ptr noundef nonnull align 8 dereferenceable(767680) %0, ptr noundef %1, ptr noundef %2, i32 noundef %3, i32 noundef %4, i32 noundef %5) #0 align 2 {
  %7 = alloca ptr, align 8
  %8 = alloca ptr, align 8
  %9 = alloca ptr, align 8
  %10 = alloca i32, align 4
  %11 = alloca i32, align 4
  %12 = alloca i32, align 4
  %13 = alloca i32, align 4
  store ptr %0, ptr %7, align 8, !tbaa !6
  store ptr %1, ptr %8, align 8, !tbaa !11
  store ptr %2, ptr %9, align 8, !tbaa !11
  store i32 %3, ptr %10, align 4, !tbaa !13
  store i32 %4, ptr %11, align 4, !tbaa !13
  store i32 %5, ptr %12, align 4, !tbaa !13
  call void @llvm.lifetime.start.p0(i64 4, ptr %13) #7
  store i32 0, ptr %13, align 4, !tbaa !13
  br label %14

14:                                               ; preds = %51, %6
  %15 = load i32, ptr %13, align 4, !tbaa !13
  %16 = load i32, ptr %12, align 4, !tbaa !13
  %17 = icmp slt i32 %15, %16
  br i1 %17, label %18, label %54

18:                                               ; preds = %14
  %19 = load ptr, ptr %9, align 8, !tbaa !11
  %20 = load i32, ptr %10, align 4, !tbaa !13
  %21 = load i32, ptr %13, align 4, !tbaa !13
  %22 = mul nsw i32 %20, %21
  %23 = sext i32 %22 to i64
  %24 = getelementptr inbounds float, ptr %19, i64 %23
  %25 = load float, ptr %24, align 4, !tbaa !15
  %26 = fmul reassoc nsz arcp contract afn float 2.000000e+00, %25
  %27 = load ptr, ptr %9, align 8, !tbaa !11
  %28 = load i32, ptr %10, align 4, !tbaa !13
  %29 = load i32, ptr %12, align 4, !tbaa !13
  %30 = load i32, ptr %13, align 4, !tbaa !13
  %31 = sub nsw i32 %29, %30
  %32 = mul nsw i32 %28, %31
  %33 = sext i32 %32 to i64
  %34 = getelementptr inbounds float, ptr %27, i64 %33
  %35 = load float, ptr %34, align 4, !tbaa !15
  %36 = fadd reassoc nsz arcp contract afn float %26, %35
  %37 = load ptr, ptr %9, align 8, !tbaa !11
  %38 = load i32, ptr %10, align 4, !tbaa !13
  %39 = load i32, ptr %13, align 4, !tbaa !13
  %40 = load i32, ptr %12, align 4, !tbaa !13
  %41 = add nsw i32 %39, %40
  %42 = mul nsw i32 %38, %41
  %43 = sext i32 %42 to i64
  %44 = getelementptr inbounds float, ptr %37, i64 %43
  %45 = load float, ptr %44, align 4, !tbaa !15
  %46 = fadd reassoc nsz arcp contract afn float %36, %45
  %47 = load ptr, ptr %8, align 8, !tbaa !11
  %48 = load i32, ptr %13, align 4, !tbaa !13
  %49 = sext i32 %48 to i64
  %50 = getelementptr inbounds float, ptr %47, i64 %49
  store float %46, ptr %50, align 4, !tbaa !15
  br label %51

51:                                               ; preds = %18
  %52 = load i32, ptr %13, align 4, !tbaa !13
  %53 = add nsw i32 %52, 1
  store i32 %53, ptr %13, align 4, !tbaa !13
  br label %14, !llvm.loop !17

54:                                               ; preds = %14
  br label %55

55:                                               ; preds = %94, %54
  %56 = load i32, ptr %13, align 4, !tbaa !13
  %57 = load i32, ptr %12, align 4, !tbaa !13
  %58 = add nsw i32 %56, %57
  %59 = load i32, ptr %11, align 4, !tbaa !13
  %60 = icmp slt i32 %58, %59
  br i1 %60, label %61, label %97

61:                                               ; preds = %55
  %62 = load ptr, ptr %9, align 8, !tbaa !11
  %63 = load i32, ptr %10, align 4, !tbaa !13
  %64 = load i32, ptr %13, align 4, !tbaa !13
  %65 = mul nsw i32 %63, %64
  %66 = sext i32 %65 to i64
  %67 = getelementptr inbounds float, ptr %62, i64 %66
  %68 = load float, ptr %67, align 4, !tbaa !15
  %69 = fmul reassoc nsz arcp contract afn float 2.000000e+00, %68
  %70 = load ptr, ptr %9, align 8, !tbaa !11
  %71 = load i32, ptr %10, align 4, !tbaa !13
  %72 = load i32, ptr %13, align 4, !tbaa !13
  %73 = load i32, ptr %12, align 4, !tbaa !13
  %74 = sub nsw i32 %72, %73
  %75 = mul nsw i32 %71, %74
  %76 = sext i32 %75 to i64
  %77 = getelementptr inbounds float, ptr %70, i64 %76
  %78 = load float, ptr %77, align 4, !tbaa !15
  %79 = fadd reassoc nsz arcp contract afn float %69, %78
  %80 = load ptr, ptr %9, align 8, !tbaa !11
  %81 = load i32, ptr %10, align 4, !tbaa !13
  %82 = load i32, ptr %13, align 4, !tbaa !13
  %83 = load i32, ptr %12, align 4, !tbaa !13
  %84 = add nsw i32 %82, %83
  %85 = mul nsw i32 %81, %84
  %86 = sext i32 %85 to i64
  %87 = getelementptr inbounds float, ptr %80, i64 %86
  %88 = load float, ptr %87, align 4, !tbaa !15
  %89 = fadd reassoc nsz arcp contract afn float %79, %88
  %90 = load ptr, ptr %8, align 8, !tbaa !11
  %91 = load i32, ptr %13, align 4, !tbaa !13
  %92 = sext i32 %91 to i64
  %93 = getelementptr inbounds float, ptr %90, i64 %92
  store float %89, ptr %93, align 4, !tbaa !15
  br label %94

94:                                               ; preds = %61
  %95 = load i32, ptr %13, align 4, !tbaa !13
  %96 = add nsw i32 %95, 1
  store i32 %96, ptr %13, align 4, !tbaa !13
  br label %55, !llvm.loop !19

97:                                               ; preds = %55
  br label %98

98:                                               ; preds = %139, %97
  %99 = load i32, ptr %13, align 4, !tbaa !13
  %100 = load i32, ptr %11, align 4, !tbaa !13
  %101 = icmp slt i32 %99, %100
  br i1 %101, label %102, label %142

102:                                              ; preds = %98
  %103 = load ptr, ptr %9, align 8, !tbaa !11
  %104 = load i32, ptr %10, align 4, !tbaa !13
  %105 = load i32, ptr %13, align 4, !tbaa !13
  %106 = mul nsw i32 %104, %105
  %107 = sext i32 %106 to i64
  %108 = getelementptr inbounds float, ptr %103, i64 %107
  %109 = load float, ptr %108, align 4, !tbaa !15
  %110 = fmul reassoc nsz arcp contract afn float 2.000000e+00, %109
  %111 = load ptr, ptr %9, align 8, !tbaa !11
  %112 = load i32, ptr %10, align 4, !tbaa !13
  %113 = load i32, ptr %13, align 4, !tbaa !13
  %114 = load i32, ptr %12, align 4, !tbaa !13
  %115 = sub nsw i32 %113, %114
  %116 = mul nsw i32 %112, %115
  %117 = sext i32 %116 to i64
  %118 = getelementptr inbounds float, ptr %111, i64 %117
  %119 = load float, ptr %118, align 4, !tbaa !15
  %120 = fadd reassoc nsz arcp contract afn float %110, %119
  %121 = load ptr, ptr %9, align 8, !tbaa !11
  %122 = load i32, ptr %10, align 4, !tbaa !13
  %123 = load i32, ptr %11, align 4, !tbaa !13
  %124 = mul nsw i32 2, %123
  %125 = sub nsw i32 %124, 2
  %126 = load i32, ptr %13, align 4, !tbaa !13
  %127 = load i32, ptr %12, align 4, !tbaa !13
  %128 = add nsw i32 %126, %127
  %129 = sub nsw i32 %125, %128
  %130 = mul nsw i32 %122, %129
  %131 = sext i32 %130 to i64
  %132 = getelementptr inbounds float, ptr %121, i64 %131
  %133 = load float, ptr %132, align 4, !tbaa !15
  %134 = fadd reassoc nsz arcp contract afn float %120, %133
  %135 = load ptr, ptr %8, align 8, !tbaa !11
  %136 = load i32, ptr %13, align 4, !tbaa !13
  %137 = sext i32 %136 to i64
  %138 = getelementptr inbounds float, ptr %135, i64 %137
  store float %134, ptr %138, align 4, !tbaa !15
  br label %139

139:                                              ; preds = %102
  %140 = load i32, ptr %13, align 4, !tbaa !13
  %141 = add nsw i32 %140, 1
  store i32 %141, ptr %13, align 4, !tbaa !13
  br label %98, !llvm.loop !20

142:                                              ; preds = %98
  call void @llvm.lifetime.end.p0(i64 4, ptr %13) #7
  ret void
}