; Function Attrs: mustprogress nofree norecurse nosync nounwind memory(argmem: readwrite) uwtable
define void @_ZN6LibRaw13hat_transformEPfS0_iii(ptr noundef nonnull readnone align 8 captures(none) dereferenceable(767680) %0, ptr noundef writeonly captures(none) %1, ptr noundef readonly captures(none) %2, i32 noundef %3, i32 noundef %4, i32 noundef %5) local_unnamed_addr #0 align 2 {
  %7 = icmp sgt i32 %5, 0
  br i1 %7, label %.lr.ph.preheader, label %.preheader53

.lr.ph.preheader:                                 ; preds = %6
  %8 = sext i32 %3 to i64
  %9 = zext nneg i32 %5 to i64
  %wide.trip.count = zext nneg i32 %5 to i64
  br label %.lr.ph

.preheader53:                                     ; preds = %.lr.ph, %6
  %.0.lcssa = phi i32 [ 0, %6 ], [ %5, %.lr.ph ]
  %10 = add nsw i32 %.0.lcssa, %5
  %11 = icmp slt i32 %10, %4
  br i1 %11, label %.lr.ph56.preheader, label %.preheader

.lr.ph56.preheader:                               ; preds = %.preheader53
  %12 = sext i32 %5 to i64
  %13 = zext nneg i32 %.0.lcssa to i64
  %14 = add nsw i64 %12, %13
  %15 = sext i32 %3 to i64
  %16 = sext i32 %4 to i64
  %invariant.op = sub nsw i64 %16, %12
  br label %.lr.ph56

.lr.ph:                                           ; preds = %.lr.ph.preheader, %.lr.ph
  %indvars.iv = phi i64 [ 0, %.lr.ph.preheader ], [ %indvars.iv.next, %.lr.ph ]
  %17 = mul nsw i64 %indvars.iv, %8
  %18 = getelementptr inbounds float, ptr %2, i64 %17
  %19 = load float, ptr %18, align 4, !tbaa !6
  %20 = fmul reassoc nsz arcp contract afn float %19, 2.000000e+00
  %21 = sub nsw i64 %9, %indvars.iv
  %22 = mul nsw i64 %21, %8
  %23 = getelementptr inbounds float, ptr %2, i64 %22
  %24 = load float, ptr %23, align 4, !tbaa !6
  %25 = fadd reassoc nsz arcp contract afn float %20, %24
  %26 = add nuw nsw i64 %indvars.iv, %9
  %27 = mul nsw i64 %26, %8
  %28 = getelementptr inbounds float, ptr %2, i64 %27
  %29 = load float, ptr %28, align 4, !tbaa !6
  %30 = fadd reassoc nsz arcp contract afn float %25, %29
  %31 = getelementptr inbounds nuw float, ptr %1, i64 %indvars.iv
  store float %30, ptr %31, align 4, !tbaa !6
  %indvars.iv.next = add nuw nsw i64 %indvars.iv, 1
  %exitcond.not = icmp eq i64 %indvars.iv.next, %wide.trip.count
  br i1 %exitcond.not, label %.preheader53, label %.lr.ph, !llvm.loop !10

.preheader.loopexit:                              ; preds = %.lr.ph56
  %32 = trunc nsw i64 %indvars.iv.next65 to i32
  br label %.preheader

.preheader:                                       ; preds = %.preheader.loopexit, %.preheader53
  %.1.lcssa = phi i32 [ %.0.lcssa, %.preheader53 ], [ %32, %.preheader.loopexit ]
  %33 = icmp slt i32 %.1.lcssa, %4
  br i1 %33, label %.lr.ph59, label %._crit_edge

.lr.ph59:                                         ; preds = %.preheader
  %34 = shl nsw i32 %4, 1
  %.neg52 = add i32 %34, -2
  %35 = sext i32 %.1.lcssa to i64
  %36 = sext i32 %3 to i64
  %37 = sext i32 %5 to i64
  %wide.trip.count72 = sext i32 %4 to i64
  br label %53

.lr.ph56:                                         ; preds = %.lr.ph56.preheader, %.lr.ph56
  %indvars.iv64 = phi i64 [ %13, %.lr.ph56.preheader ], [ %indvars.iv.next65, %.lr.ph56 ]
  %indvars.iv62 = phi i64 [ %14, %.lr.ph56.preheader ], [ %indvars.iv.next63, %.lr.ph56 ]
  %38 = mul nsw i64 %indvars.iv64, %15
  %39 = getelementptr inbounds float, ptr %2, i64 %38
  %40 = load float, ptr %39, align 4, !tbaa !6
  %41 = fmul reassoc nsz arcp contract afn float %40, 2.000000e+00
  %42 = sub nsw i64 %indvars.iv64, %12
  %43 = mul nsw i64 %42, %15
  %44 = getelementptr inbounds float, ptr %2, i64 %43
  %45 = load float, ptr %44, align 4, !tbaa !6
  %46 = fadd reassoc nsz arcp contract afn float %41, %45
  %47 = mul nsw i64 %indvars.iv62, %15
  %48 = getelementptr inbounds float, ptr %2, i64 %47
  %49 = load float, ptr %48, align 4, !tbaa !6
  %50 = fadd reassoc nsz arcp contract afn float %46, %49
  %51 = getelementptr inbounds nuw float, ptr %1, i64 %indvars.iv64
  store float %50, ptr %51, align 4, !tbaa !6
  %indvars.iv.next65 = add nuw nsw i64 %indvars.iv64, 1
  %52 = icmp slt i64 %indvars.iv.next65, %invariant.op
  %indvars.iv.next63 = add nsw i64 %indvars.iv62, 1
  br i1 %52, label %.lr.ph56, label %.preheader.loopexit, !llvm.loop !12

53:                                               ; preds = %.lr.ph59, %53
  %indvars.iv69 = phi i64 [ %35, %.lr.ph59 ], [ %indvars.iv.next70, %53 ]
  %54 = mul nsw i64 %indvars.iv69, %36
  %55 = getelementptr inbounds float, ptr %2, i64 %54
  %56 = load float, ptr %55, align 4, !tbaa !6
  %57 = fmul reassoc nsz arcp contract afn float %56, 2.000000e+00
  %58 = sub nsw i64 %indvars.iv69, %37
  %59 = mul nsw i64 %58, %36
  %60 = getelementptr inbounds float, ptr %2, i64 %59
  %61 = load float, ptr %60, align 4, !tbaa !6
  %62 = fadd reassoc nsz arcp contract afn float %57, %61
  %63 = trunc nsw i64 %indvars.iv69 to i32
  %64 = add i32 %5, %63
  %65 = sub i32 %.neg52, %64
  %66 = mul nsw i32 %65, %3
  %67 = sext i32 %66 to i64
  %68 = getelementptr inbounds float, ptr %2, i64 %67
  %69 = load float, ptr %68, align 4, !tbaa !6
  %70 = fadd reassoc nsz arcp contract afn float %62, %69
  %71 = getelementptr inbounds nuw float, ptr %1, i64 %indvars.iv69
  store float %70, ptr %71, align 4, !tbaa !6
  %indvars.iv.next70 = add nsw i64 %indvars.iv69, 1
  %exitcond73.not = icmp eq i64 %indvars.iv.next70, %wide.trip.count72
  br i1 %exitcond73.not, label %._crit_edge, label %53, !llvm.loop !13

._crit_edge:                                      ; preds = %53, %.preheader
  ret void
}